; Function Attrs: mustprogress nounwind uwtable
define hidden void @_ZN5zxing6ResultD2Ev(ptr noundef nonnull align 8 dereferenceable(228) initializes((0, 8)) %0) unnamed_addr #1 align 2 personality ptr @__gxx_personality_v0 {
  store ptr getelementptr inbounds nuw inrange(-16, 16) (i8, ptr @_ZTVN5zxing6ResultE, i64 16), ptr %0, align 8, !tbaa !8
  %2 = getelementptr inbounds nuw i8, ptr %0, i64 184
  %3 = load ptr, ptr %2, align 8, !tbaa !32
  %4 = getelementptr inbounds nuw i8, ptr %0, i64 200
  %5 = icmp eq ptr %3, %4
  br i1 %5, label %_ZNKSt7__cxx1112basic_stringIcSt11char_traitsIcESaIcEE11_M_is_localEv.exit.thread.i.i, label %_ZNKSt7__cxx1112basic_stringIcSt11char_traitsIcESaIcEE11_M_is_localEv.exit.i.i

_ZNKSt7__cxx1112basic_stringIcSt11char_traitsIcESaIcEE11_M_is_localEv.exit.thread.i.i: ; preds = %1
  %6 = getelementptr inbounds nuw i8, ptr %0, i64 192
  %7 = load i64, ptr %6, align 8, !tbaa !23
  %8 = icmp ult i64 %7, 16
  tail call void @llvm.assume(i1 %8)
  br label %_ZNSt7__cxx1112basic_stringIcSt11char_traitsIcESaIcEED2Ev.exit

_ZNKSt7__cxx1112basic_stringIcSt11char_traitsIcESaIcEE11_M_is_localEv.exit.i.i: ; preds = %1
  tail call void @_ZdlPv(ptr noundef %3) #10
  br label %_ZNSt7__cxx1112basic_stringIcSt11char_traitsIcESaIcEED2Ev.exit

_ZNSt7__cxx1112basic_stringIcSt11char_traitsIcESaIcEED2Ev.exit: ; preds = %_ZNKSt7__cxx1112basic_stringIcSt11char_traitsIcESaIcEE11_M_is_localEv.exit.thread.i.i, %_ZNKSt7__cxx1112basic_stringIcSt11char_traitsIcESaIcEE11_M_is_localEv.exit.i.i
  %9 = getelementptr inbounds nuw i8, ptr %0, i64 152
  %10 = load ptr, ptr %9, align 8, !tbaa !32
  %11 = getelementptr inbounds nuw i8, ptr %0, i64 168
  %12 = icmp eq ptr %10, %11
  br i1 %12, label %_ZNKSt7__cxx1112basic_stringIcSt11char_traitsIcESaIcEE11_M_is_localEv.exit.thread.i.i2, label %_ZNKSt7__cxx1112basic_stringIcSt11char_traitsIcESaIcEE11_M_is_localEv.exit.i.i1

_ZNKSt7__cxx1112basic_stringIcSt11char_traitsIcESaIcEE11_M_is_localEv.exit.thread.i.i2: ; preds = %_ZNSt7__cxx1112basic_stringIcSt11char_traitsIcESaIcEED2Ev.exit
  %13 = getelementptr inbounds nuw i8, ptr %0, i64 160
  %14 = load i64, ptr %13, align 8, !tbaa !23
  %15 = icmp ult i64 %14, 16
  tail call void @llvm.assume(i1 %15)
  br label %_ZNSt7__cxx1112basic_stringIcSt11char_traitsIcESaIcEED2Ev.exit3

_ZNKSt7__cxx1112basic_stringIcSt11char_traitsIcESaIcEE11_M_is_localEv.exit.i.i1: ; preds = %_ZNSt7__cxx1112basic_stringIcSt11char_traitsIcESaIcEED2Ev.exit
  tail call void @_ZdlPv(ptr noundef %10) #10
  br label %_ZNSt7__cxx1112basic_stringIcSt11char_traitsIcESaIcEED2Ev.exit3

_ZNSt7__cxx1112basic_stringIcSt11char_traitsIcESaIcEED2Ev.exit3: ; preds = %_ZNKSt7__cxx1112basic_stringIcSt11char_traitsIcESaIcEE11_M_is_localEv.exit.thread.i.i2, %_ZNKSt7__cxx1112basic_stringIcSt11char_traitsIcESaIcEE11_M_is_localEv.exit.i.i1
  %16 = getelementptr inbounds nuw i8, ptr %0, i64 120
  %17 = load ptr, ptr %16, align 8, !tbaa !32
  %18 = getelementptr inbounds nuw i8, ptr %0, i64 136
  %19 = icmp eq ptr %17, %18
  br i1 %19, label %_ZNKSt7__cxx1112basic_stringIcSt11char_traitsIcESaIcEE11_M_is_localEv.exit.thread.i.i5, label %_ZNKSt7__cxx1112basic_stringIcSt11char_traitsIcESaIcEE11_M_is_localEv.exit.i.i4

_ZNKSt7__cxx1112basic_stringIcSt11char_traitsIcESaIcEE11_M_is_localEv.exit.thread.i.i5: ; preds = %_ZNSt7__cxx1112basic_stringIcSt11char_traitsIcESaIcEED2Ev.exit3
  %20 = getelementptr inbounds nuw i8, ptr %0, i64 128
  %21 = load i64, ptr %20, align 8, !tbaa !23
  %22 = icmp ult i64 %21, 16
  tail call void @llvm.assume(i1 %22)
  br label %_ZNSt7__cxx1112basic_stringIcSt11char_traitsIcESaIcEED2Ev.exit6

_ZNKSt7__cxx1112basic_stringIcSt11char_traitsIcESaIcEE11_M_is_localEv.exit.i.i4: ; preds = %_ZNSt7__cxx1112basic_stringIcSt11char_traitsIcESaIcEED2Ev.exit3
  tail call void @_ZdlPv(ptr noundef %17) #10
  br label %_ZNSt7__cxx1112basic_stringIcSt11char_traitsIcESaIcEED2Ev.exit6

_ZNSt7__cxx1112basic_stringIcSt11char_traitsIcESaIcEED2Ev.exit6: ; preds = %_ZNKSt7__cxx1112basic_stringIcSt11char_traitsIcESaIcEE11_M_is_localEv.exit.thread.i.i5, %_ZNKSt7__cxx1112basic_stringIcSt11char_traitsIcESaIcEE11_M_is_localEv.exit.i.i4
  %23 = getelementptr inbounds nuw i8, ptr %0, i64 72
  %24 = load ptr, ptr %23, align 8, !tbaa !32
  %25 = getelementptr inbounds nuw i8, ptr %0, i64 88
  %26 = icmp eq ptr %24, %25
  br i1 %26, label %_ZNKSt7__cxx1112basic_stringIcSt11char_traitsIcESaIcEE11_M_is_localEv.exit.thread.i.i8, label %_ZNKSt7__cxx1112basic_stringIcSt11char_traitsIcESaIcEE11_M_is_localEv.exit.i.i7

_ZNKSt7__cxx1112basic_stringIcSt11char_traitsIcESaIcEE11_M_is_localEv.exit.thread.i.i8: ; preds = %_ZNSt7__cxx1112basic_stringIcSt11char_traitsIcESaIcEED2Ev.exit6
  %27 = getelementptr inbounds nuw i8, ptr %0, i64 80
  %28 = load i64, ptr %27, align 8, !tbaa !23
  %29 = icmp ult i64 %28, 16
  tail call void @llvm.assume(i1 %29)
  br label %_ZNSt7__cxx1112basic_stringIcSt11char_traitsIcESaIcEED2Ev.exit9

_ZNKSt7__cxx1112basic_stringIcSt11char_traitsIcESaIcEE11_M_is_localEv.exit.i.i7: ; preds = %_ZNSt7__cxx1112basic_stringIcSt11char_traitsIcESaIcEED2Ev.exit6
  tail call void @_ZdlPv(ptr noundef %24) #10
  br label %_ZNSt7__cxx1112basic_stringIcSt11char_traitsIcESaIcEED2Ev.exit9

_ZNSt7__cxx1112basic_stringIcSt11char_traitsIcESaIcEED2Ev.exit9: ; preds = %_ZNKSt7__cxx1112basic_stringIcSt11char_traitsIcESaIcEE11_M_is_localEv.exit.thread.i.i8, %_ZNKSt7__cxx1112basic_stringIcSt11char_traitsIcESaIcEE11_M_is_localEv.exit.i.i7
  %30 = getelementptr inbounds nuw i8, ptr %0, i64 48
  store ptr getelementptr inbounds nuw inrange(-16, 16) (i8, ptr @_ZTVN5zxing8ArrayRefINS_3RefINS_11ResultPointEEEEE, i64 16), ptr %30, align 8, !tbaa !8
  %31 = getelementptr inbounds nuw i8, ptr %0, i64 64
  %32 = load ptr, ptr %31, align 8, !tbaa !17
  %.not.i = icmp eq ptr %32, null
  br i1 %.not.i, label %_ZN5zxing8ArrayRefINS_3RefINS_11ResultPointEEEED2Ev.exit, label %33

33:                                               ; preds = %_ZNSt7__cxx1112basic_stringIcSt11char_traitsIcESaIcEED2Ev.exit9
  %34 = getelementptr inbounds nuw i8, ptr %32, i64 8
  %35 = load i32, ptr %34, align 8, !tbaa !3
  %36 = add i32 %35, -1
  store i32 %36, ptr %34, align 8, !tbaa !3
  %37 = icmp eq i32 %36, 0
  br i1 %37, label %38, label %_ZN5zxing8ArrayRefINS_3RefINS_11ResultPointEEEED2Ev.exit

38:                                               ; preds = %33
  store i32 -559026175, ptr %34, align 8, !tbaa !3
  %39 = load ptr, ptr %32, align 8, !tbaa !8
  %40 = getelementptr inbounds nuw i8, ptr %39, i64 8
  %41 = load ptr, ptr %40, align 8
  tail call void %41(ptr noundef nonnull align 8 dereferenceable(12) %32) #11
  br label %_ZN5zxing8ArrayRefINS_3RefINS_11ResultPointEEEED2Ev.exit

_ZN5zxing8ArrayRefINS_3RefINS_11ResultPointEEEED2Ev.exit: ; preds = %_ZNSt7__cxx1112basic_stringIcSt11char_traitsIcESaIcEED2Ev.exit9, %33, %38
  store ptr null, ptr %31, align 8, !tbaa !17
  %42 = getelementptr inbounds nuw i8, ptr %0, i64 24
  store ptr getelementptr inbounds nuw inrange(-16, 16) (i8, ptr @_ZTVN5zxing8ArrayRefIcEE, i64 16), ptr %42, align 8, !tbaa !8
  %43 = getelementptr inbounds nuw i8, ptr %0, i64 40
  %44 = load ptr, ptr %43, align 8, !tbaa !14
  %.not.i10 = icmp eq ptr %44, null
  br i1 %.not.i10, label %_ZN5zxing8ArrayRefIcED2Ev.exit, label %45

45:                                               ; preds = %_ZN5zxing8ArrayRefINS_3RefINS_11ResultPointEEEED2Ev.exit
  %46 = getelementptr inbounds nuw i8, ptr %44, i64 8
  %47 = load i32, ptr %46, align 8, !tbaa !3
  %48 = add i32 %47, -1
  store i32 %48, ptr %46, align 8, !tbaa !3
  %49 = icmp eq i32 %48, 0
  br i1 %49, label %50, label %_ZN5zxing8ArrayRefIcED2Ev.exit

50:                                               ; preds = %45
  store i32 -559026175, ptr %46, align 8, !tbaa !3
  %51 = load ptr, ptr %44, align 8, !tbaa !8
  %52 = getelementptr inbounds nuw i8, ptr %51, i64 8
  %53 = load ptr, ptr %52, align 8
  tail call void %53(ptr noundef nonnull align 8 dereferenceable(12) %44) #11
  br label %_ZN5zxing8ArrayRefIcED2Ev.exit

_ZN5zxing8ArrayRefIcED2Ev.exit:                   ; preds = %_ZN5zxing8ArrayRefINS_3RefINS_11ResultPointEEEED2Ev.exit, %45, %50
  store ptr null, ptr %43, align 8, !tbaa !14
  %54 = getelementptr inbounds nuw i8, ptr %0, i64 16
  %55 = load ptr, ptr %54, align 8, !tbaa !10
  %.not.i11 = icmp eq ptr %55, null
  br i1 %.not.i11, label %_ZN5zxing3RefINS_6StringEED2Ev.exit, label %56

56:                                               ; preds = %_ZN5zxing8ArrayRefIcED2Ev.exit
  %57 = getelementptr inbounds nuw i8, ptr %55, i64 8
  %58 = load i32, ptr %57, align 8, !tbaa !3
  %59 = add i32 %58, -1
  store i32 %59, ptr %57, align 8, !tbaa !3
  %60 = icmp eq i32 %59, 0
  br i1 %60, label %61, label %_ZN5zxing3RefINS_6StringEED2Ev.exit

61:                                               ; preds = %56
  store i32 -559026175, ptr %57, align 8, !tbaa !3
  %62 = load ptr, ptr %55, align 8, !tbaa !8
  %63 = getelementptr inbounds nuw i8, ptr %62, i64 8
  %64 = load ptr, ptr %63, align 8
  tail call void %64(ptr noundef nonnull align 8 dereferenceable(12) %55) #11
  br label %_ZN5zxing3RefINS_6StringEED2Ev.exit

_ZN5zxing3RefINS_6StringEED2Ev.exit:              ; preds = %_ZN5zxing8ArrayRefIcED2Ev.exit, %56, %61
  ret void
}